; Function Attrs: nounwind uwtable
define dso_local void @assign_recovery_target(ptr noundef readonly captures(address_is_null) %0, ptr noundef readnone captures(none) %1) local_unnamed_addr #2 {
  %3 = load i32, ptr @recoveryTarget, align 4
  switch i32 %3, label %4 [
    i32 5, label %5
    i32 0, label %5
  ]

4:                                                ; preds = %2
  tail call fastcc void @error_multiple_recovery_targets() #28
  unreachable

5:                                                ; preds = %2, %2
  %.not = icmp eq ptr %0, null
  br i1 %.not, label %7, label %6

6:                                                ; preds = %5
  %strcmpload = load i8, ptr %0, align 1
  %.not3 = icmp eq i8 %strcmpload, 0
  br i1 %.not3, label %7, label %8

7:                                                ; preds = %6, %5
  br label %8

8:                                                ; preds = %6, %7
  %storemerge = phi i32 [ 0, %7 ], [ 5, %6 ]
  store i32 %storemerge, ptr @recoveryTarget, align 4
  ret void
}